; Function Attrs: mustprogress null_pointer_is_valid sspstrong uwtable
define noundef zeroext i1 @_ZN15ExtArgTimestamp7isValidEv(ptr noundef align 8 dereferenceable_or_null(104) %0) unnamed_addr #0 align 2 personality ptr @__gxx_personality_v0 {
  %2 = alloca %class.QString, align 8
  call void @llvm.lifetime.start.p0(i64 24, ptr nonnull %2) #26
  %3 = load ptr, ptr %0, align 8
  %4 = getelementptr inbounds nuw i8, ptr %3, i64 128
  %5 = load ptr, ptr %4, align 8
  call void %5(ptr dead_on_unwind nonnull writable sret(%class.QString) align 8 %2, ptr noundef align 8 dereferenceable_or_null(104) %0)
  %6 = getelementptr inbounds nuw i8, ptr %2, i64 16
  %7 = load i64, ptr %6, align 8
  %8 = icmp eq i64 %7, 0
  br i1 %8, label %9, label %.critedge

9:                                                ; preds = %1
  %10 = getelementptr inbounds nuw i8, ptr %0, i64 40
  %11 = load ptr, ptr %10, align 8
  %.not.i = icmp eq ptr %11, null
  br i1 %.not.i, label %_ZN14ExtcapArgument10isRequiredEv.exit, label %12

12:                                               ; preds = %9
  %13 = getelementptr inbounds nuw i8, ptr %11, i64 49
  %14 = load i8, ptr %13, align 1, !range !11, !noundef !12
  %15 = trunc nuw i8 %14 to i1
  %16 = xor i1 %15, true
  br label %_ZN14ExtcapArgument10isRequiredEv.exit

_ZN14ExtcapArgument10isRequiredEv.exit:           ; preds = %9, %12
  %.0.i = phi i1 [ %16, %12 ], [ true, %9 ]
  %17 = load ptr, ptr %2, align 8
  %.not.i.i.i = icmp eq ptr %17, null
  br i1 %.not.i.i.i, label %_ZN7QStringD2Ev.exit, label %_ZN17QArrayDataPointerIDsE5derefEv.exit.i.i

_ZN17QArrayDataPointerIDsE5derefEv.exit.i.i:      ; preds = %_ZN14ExtcapArgument10isRequiredEv.exit
  %18 = atomicrmw sub ptr %17, i32 1 seq_cst, align 4
  %.not.i.i = icmp eq i32 %18, 1
  br i1 %.not.i.i, label %_ZN7QStringD2Ev.exit.sink.split, label %_ZN7QStringD2Ev.exit

.critedge:                                        ; preds = %1
  %19 = load ptr, ptr %2, align 8
  %.not.i.i.i1 = icmp eq ptr %19, null
  br i1 %.not.i.i.i1, label %_ZN7QStringD2Ev.exit, label %_ZN17QArrayDataPointerIDsE5derefEv.exit.i.i2

_ZN17QArrayDataPointerIDsE5derefEv.exit.i.i2:     ; preds = %.critedge
  %20 = atomicrmw sub ptr %19, i32 1 seq_cst, align 4
  %.not.i.i3 = icmp eq i32 %20, 1
  br i1 %.not.i.i3, label %_ZN7QStringD2Ev.exit.sink.split, label %_ZN7QStringD2Ev.exit

_ZN7QStringD2Ev.exit.sink.split:                  ; preds = %_ZN17QArrayDataPointerIDsE5derefEv.exit.i.i2, %_ZN17QArrayDataPointerIDsE5derefEv.exit.i.i
  %.0.ph = phi i1 [ %.0.i, %_ZN17QArrayDataPointerIDsE5derefEv.exit.i.i ], [ true, %_ZN17QArrayDataPointerIDsE5derefEv.exit.i.i2 ]
  %21 = load ptr, ptr %2, align 8
  call void @_ZN10QArrayData10deallocateEPS_xx(ptr noundef %21, i64 noundef 2, i64 noundef 8) #26
  br label %_ZN7QStringD2Ev.exit

_ZN7QStringD2Ev.exit:                             ; preds = %_ZN7QStringD2Ev.exit.sink.split, %_ZN17QArrayDataPointerIDsE5derefEv.exit.i.i2, %.critedge, %_ZN17QArrayDataPointerIDsE5derefEv.exit.i.i, %_ZN14ExtcapArgument10isRequiredEv.exit
  %.0 = phi i1 [ %.0.i, %_ZN14ExtcapArgument10isRequiredEv.exit ], [ %.0.i, %_ZN17QArrayDataPointerIDsE5derefEv.exit.i.i ], [ true, %.critedge ], [ true, %_ZN17QArrayDataPointerIDsE5derefEv.exit.i.i2 ], [ %.0.ph, %_ZN7QStringD2Ev.exit.sink.split ]
  call void @llvm.lifetime.end.p0(i64 24, ptr nonnull %2) #26
  ret i1 %.0
}